; Function Attrs: nounwind uwtable
define dso_local range(i32 0, 2) i32 @checkAlreadyExpired(i64 noundef %0) local_unnamed_addr #0 {
  %2 = tail call i64 @commandTimeSnapshot() #10
  %.not = icmp sgt i64 %0, %2
  br i1 %.not, label %8, label %3

3:                                                ; preds = %1
  %4 = load volatile i32, ptr getelementptr inbounds nuw (i8, ptr @server, i64 2412), align 4, !tbaa !75
  %.not1 = icmp eq i32 %4, 0
  br i1 %.not1, label %5, label %8

5:                                                ; preds = %3
  %6 = load ptr, ptr getelementptr inbounds nuw (i8, ptr @server, i64 7264), align 8, !tbaa !76
  %.not2 = icmp eq ptr %6, null
  %7 = zext i1 %.not2 to i32
  br label %8

8:                                                ; preds = %5, %3, %1
  %9 = phi i32 [ 0, %3 ], [ 0, %1 ], [ %7, %5 ]
  ret i32 %9
}